; Function Attrs: mustprogress nofree norecurse nosync nounwind willreturn memory(read, inaccessiblemem: none) uwtable
define internal noundef float @_ZN5faiss12_GLOBAL__N_121ExtraDistanceComputerINS_14VectorDistanceILNS_10MetricTypeE21EEEE13symmetric_disEll(ptr nocapture noundef nonnull readonly align 8 dereferenceable(64) %0, i64 noundef %1, i64 noundef %2) unnamed_addr #17 align 2 {
  %4 = getelementptr inbounds i8, ptr %0, i64 24
  %5 = getelementptr inbounds i8, ptr %0, i64 56
  %6 = load ptr, ptr %5, align 8
  %7 = load i64, ptr %4, align 8
  %8 = mul i64 %7, %2
  %9 = getelementptr inbounds float, ptr %6, i64 %8
  %10 = mul i64 %7, %1
  %11 = getelementptr inbounds float, ptr %6, i64 %10
  %.not.i = icmp eq i64 %7, 0
  br i1 %.not.i, label %_ZNK5faiss14VectorDistanceILNS_10MetricTypeE21EEclEPKfS4_.exit, label %.lr.ph.i

.lr.ph.i:                                         ; preds = %3, %.lr.ph.i
  %.01516.i = phi i64 [ %23, %.lr.ph.i ], [ 0, %3 ]
  %12 = phi <2 x float> [ %22, %.lr.ph.i ], [ zeroinitializer, %3 ]
  %13 = getelementptr inbounds float, ptr %9, i64 %.01516.i
  %14 = load float, ptr %13, align 4
  %15 = getelementptr inbounds float, ptr %11, i64 %.01516.i
  %16 = load float, ptr %15, align 4
  %17 = fsub float %14, %16
  %18 = fadd float %14, %16
  %19 = insertelement <2 x float> poison, float %17, i64 0
  %20 = insertelement <2 x float> %19, float %18, i64 1
  %21 = tail call <2 x float> @llvm.fabs.v2f32(<2 x float> %20)
  %22 = fadd <2 x float> %12, %21
  %23 = add nuw i64 %.01516.i, 1
  %exitcond.not.i = icmp eq i64 %23, %7
  br i1 %exitcond.not.i, label %._crit_edge.loopexit.i, label %.lr.ph.i, !llvm.loop !26

._crit_edge.loopexit.i:                           ; preds = %.lr.ph.i
  %24 = extractelement <2 x float> %22, i64 0
  %25 = extractelement <2 x float> %22, i64 1
  %26 = fdiv float %24, %25
  br label %_ZNK5faiss14VectorDistanceILNS_10MetricTypeE21EEclEPKfS4_.exit

_ZNK5faiss14VectorDistanceILNS_10MetricTypeE21EEclEPKfS4_.exit: ; preds = %3, %._crit_edge.loopexit.i
  %27 = phi float [ 0x7FF8000000000000, %3 ], [ %26, %._crit_edge.loopexit.i ]
  ret float %27
}